target datalayout = "e-m:e-p270:32:32-p271:32:32-p272:64:64-i64:64-i128:128-f80:128-n8:16:32:64-S128"
target triple = "x86_64-pc-linux-gnu"

%struct._zval_struct = type { %union._zend_value, %union.anon.0, %union.anon.3 }
%union._zend_value = type { i64 }
%union.anon.0 = type { i32 }
%union.anon.3 = type { i32 }
%struct._zend_array = type { %struct._zend_refcounted_h, %union.anon.5, i32, %union.anon.7, i32, i32, i32, i32, i64, ptr }
%struct._zend_refcounted_h = type { i32, %union.anon }
%union.anon = type { i32 }
%union.anon.5 = type { i32 }
%union.anon.7 = type { ptr }
%struct._zend_class_entry = type { i8, ptr, %union.anon.10, i32, i32, i32, i32, ptr, ptr, ptr, %struct._zend_array, %struct._zend_array, %struct._zend_array, ptr, ptr, ptr, ptr, ptr, ptr, ptr, ptr, ptr, ptr, ptr, ptr, ptr, ptr, ptr, ptr, ptr, ptr, ptr, %union.anon.11, ptr, ptr, ptr, ptr, i32, i32, %union.anon.12, ptr, ptr, ptr, ptr, i32, ptr, ptr, %union.anon.13 }
%union.anon.10 = type { ptr }
%union.anon.11 = type { ptr }
%union.anon.12 = type { ptr }
%union.anon.13 = type { %struct.anon.14 }
%struct.anon.14 = type { ptr, i32, i32 }
%struct._zend_string = type { %struct._zend_refcounted_h, i64, i64, [1 x i8] }
%struct._zend_object = type { %struct._zend_refcounted_h, i32, ptr, ptr, ptr, [1 x %struct._zval_struct] }
%struct._zend_execute_data = type { ptr, ptr, ptr, ptr, %struct._zval_struct, ptr, ptr, ptr, ptr }

@date_ce_timezone = hidden global ptr null, align 8

; Function Attrs: nounwind uwtable
define internal ptr @php_date_obj_from_obj(ptr noundef %0) #0 {
  %2 = alloca ptr, align 8
  store ptr %0, ptr %2, align 8
  %3 = load ptr, ptr %2, align 8
  %4 = getelementptr inbounds i8, ptr %3, i64 -8
  ret ptr %4
}

; Function Attrs: nounwind uwtable
define hidden void @zim_DateTimeImmutable___construct(ptr noundef %0, ptr noundef %1) #0 {
  %3 = alloca ptr, align 8
  %4 = alloca ptr, align 8
  %5 = alloca ptr, align 8
  %6 = alloca ptr, align 8
  %7 = alloca i1, align 1
  %8 = alloca ptr, align 8
  %9 = alloca ptr, align 8
  %10 = alloca i8, align 1
  %11 = alloca i32, align 4
  %12 = alloca i8, align 1
  %13 = alloca ptr, align 8
  %14 = alloca ptr, align 8
  %15 = alloca i1, align 1
  %16 = alloca ptr, align 8
  %17 = alloca ptr, align 8
  %18 = alloca ptr, align 8
  %19 = alloca i8, align 1
  %20 = alloca ptr, align 8
  %21 = alloca ptr, align 8
  %22 = alloca i8, align 1
  %23 = alloca i32, align 4
  %24 = alloca i1, align 1
  %25 = alloca ptr, align 8
  %26 = alloca ptr, align 8
  %27 = alloca ptr, align 8
  %28 = alloca i8, align 1
  %29 = alloca i32, align 4
  %30 = alloca ptr, align 8
  %31 = alloca ptr, align 8
  %32 = alloca ptr, align 8
  %33 = alloca ptr, align 8
  %34 = alloca ptr, align 8
  %35 = alloca i64, align 8
  %36 = alloca i32, align 4
  %37 = alloca i32, align 4
  %38 = alloca i32, align 4
  %39 = alloca i32, align 4
  %40 = alloca i32, align 4
  %41 = alloca ptr, align 8
  %42 = alloca ptr, align 8
  %43 = alloca i32, align 4
  %44 = alloca ptr, align 8
  %45 = alloca i8, align 1
  %46 = alloca i8, align 1
  %47 = alloca i32, align 4
  store ptr %0, ptr %31, align 8
  store ptr %1, ptr %32, align 8
  store ptr null, ptr %33, align 8
  store ptr null, ptr %34, align 8
  store i64 0, ptr %35, align 8
  br label %48

48:                                               ; preds = %2
  store i32 0, ptr %36, align 4
  store i32 0, ptr %37, align 4
  store i32 2, ptr %38, align 4
  %49 = load ptr, ptr %31, align 8
  %50 = getelementptr inbounds %struct._zend_execute_data, ptr %49, i32 0, i32 4
  %51 = getelementptr inbounds %struct._zval_struct, ptr %50, i32 0, i32 2
  %52 = load i32, ptr %51, align 4
  store i32 %52, ptr %39, align 4
  store i32 0, ptr %40, align 4
  store ptr null, ptr %42, align 8
  store i32 0, ptr %43, align 4
  store ptr null, ptr %44, align 8
  store i8 0, ptr %45, align 1
  store i8 0, ptr %46, align 1
  store i32 0, ptr %47, align 4
  br label %53

53:                                               ; preds = %48
  %54 = load i32, ptr %39, align 4
  %55 = load i32, ptr %37, align 4
  %56 = icmp ult i32 %54, %55
  %57 = xor i1 %56, true
  %58 = xor i1 %57, true
  %59 = zext i1 %58 to i32
  %60 = sext i32 %59 to i64
  %61 = icmp ne i64 %60, 0
  br i1 %61, label %71, label %62

62:                                               ; preds = %53
  %63 = load i32, ptr %39, align 4
  %64 = load i32, ptr %38, align 4
  %65 = icmp ugt i32 %63, %64
  %66 = xor i1 %65, true
  %67 = xor i1 %66, true
  %68 = zext i1 %67 to i32
  %69 = sext i32 %68 to i64
  %70 = icmp ne i64 %69, 0
  br i1 %70, label %71, label %74

71:                                               ; preds = %62, %53
  %72 = load i32, ptr %37, align 4
  %73 = load i32, ptr %38, align 4
  call void @zend_wrong_parameters_count_error(i32 noundef %72, i32 noundef %73)
  store i32 1, ptr %47, align 4
  br label %306

74:                                               ; preds = %62
  %75 = load ptr, ptr %31, align 8
  %76 = getelementptr inbounds %struct._zval_struct, ptr %75, i64 4
  store ptr %76, ptr %41, align 8
  store i8 1, ptr %46, align 1
  %77 = load i32, ptr %40, align 4
  %78 = add i32 %77, 1
  store i32 %78, ptr %40, align 4
  %79 = load i32, ptr %40, align 4
  %80 = load i32, ptr %37, align 4
  %81 = icmp ule i32 %79, %80
  br i1 %81, label %87, label %82

82:                                               ; preds = %74
  %83 = load i8, ptr %46, align 1
  %84 = trunc i8 %83 to i1
  %85 = zext i1 %84 to i32
  %86 = icmp eq i32 %85, 1
  br label %87

87:                                               ; preds = %82, %74
  %88 = phi i1 [ true, %74 ], [ %86, %82 ]
  call void @llvm.assume(i1 %88)
  %89 = load i32, ptr %40, align 4
  %90 = load i32, ptr %37, align 4
  %91 = icmp ugt i32 %89, %90
  br i1 %91, label %97, label %92

92:                                               ; preds = %87
  %93 = load i8, ptr %46, align 1
  %94 = trunc i8 %93 to i1
  %95 = zext i1 %94 to i32
  %96 = icmp eq i32 %95, 0
  br label %97

97:                                               ; preds = %92, %87
  %98 = phi i1 [ true, %87 ], [ %96, %92 ]
  call void @llvm.assume(i1 %98)
  %99 = load i8, ptr %46, align 1
  %100 = trunc i8 %99 to i1
  br i1 %100, label %101, label %112

101:                                              ; preds = %97
  %102 = load i32, ptr %40, align 4
  %103 = load i32, ptr %39, align 4
  %104 = icmp ugt i32 %102, %103
  %105 = xor i1 %104, true
  %106 = xor i1 %105, true
  %107 = zext i1 %106 to i32
  %108 = sext i32 %107 to i64
  %109 = icmp ne i64 %108, 0
  br i1 %109, label %110, label %111

110:                                              ; preds = %101
  br label %306

111:                                              ; preds = %101
  br label %112

112:                                              ; preds = %111, %97
  %113 = load ptr, ptr %41, align 8
  %114 = getelementptr inbounds %struct._zval_struct, ptr %113, i32 1
  store ptr %114, ptr %41, align 8
  %115 = load ptr, ptr %41, align 8
  store ptr %115, ptr %42, align 8
  %116 = load ptr, ptr %42, align 8
  %117 = load i32, ptr %40, align 4
  store ptr %116, ptr %25, align 8
  store ptr %34, ptr %26, align 8
  store ptr %35, ptr %27, align 8
  store i8 0, ptr %28, align 1
  store i32 %117, ptr %29, align 4
  %118 = load ptr, ptr %25, align 8
  %119 = load i8, ptr %28, align 1
  %120 = trunc i8 %119 to i1
  %121 = load i32, ptr %29, align 4
  store ptr %118, ptr %20, align 8
  store ptr %30, ptr %21, align 8
  %122 = zext i1 %120 to i8
  store i8 %122, ptr %22, align 1
  store i32 %121, ptr %23, align 4
  %123 = load ptr, ptr %20, align 8
  %124 = load ptr, ptr %21, align 8
  %125 = load i8, ptr %22, align 1
  %126 = trunc i8 %125 to i1
  %127 = load i32, ptr %23, align 4
  store ptr %123, ptr %8, align 8
  store ptr %124, ptr %9, align 8
  %128 = zext i1 %126 to i8
  store i8 %128, ptr %10, align 1
  store i32 %127, ptr %11, align 4
  store i8 0, ptr %12, align 1
  %129 = load ptr, ptr %8, align 8
  store ptr %129, ptr %5, align 8
  %130 = load ptr, ptr %5, align 8
  %131 = getelementptr inbounds %struct._zval_struct, ptr %130, i32 0, i32 1
  %132 = load i8, ptr %131, align 8
  %133 = zext i8 %132 to i32
  %134 = icmp eq i32 %133, 6
  br i1 %134, label %135, label %139

135:                                              ; preds = %112
  %136 = load ptr, ptr %8, align 8
  %137 = load ptr, ptr %136, align 8
  %138 = load ptr, ptr %9, align 8
  store ptr %137, ptr %138, align 8
  br label %164

139:                                              ; preds = %112
  %140 = load i8, ptr %10, align 1
  %141 = trunc i8 %140 to i1
  br i1 %141, label %142, label %151

142:                                              ; preds = %139
  %143 = load ptr, ptr %8, align 8
  store ptr %143, ptr %6, align 8
  %144 = load ptr, ptr %6, align 8
  %145 = getelementptr inbounds %struct._zval_struct, ptr %144, i32 0, i32 1
  %146 = load i8, ptr %145, align 8
  %147 = zext i8 %146 to i32
  %148 = icmp eq i32 %147, 1
  br i1 %148, label %149, label %151

149:                                              ; preds = %142
  %150 = load ptr, ptr %9, align 8
  store ptr null, ptr %150, align 8
  br label %164

151:                                              ; preds = %142, %139
  %152 = load i8, ptr %12, align 1
  %153 = trunc i8 %152 to i1
  br i1 %153, label %154, label %159

154:                                              ; preds = %151
  %155 = load ptr, ptr %8, align 8
  %156 = load ptr, ptr %9, align 8
  %157 = load i32, ptr %11, align 4
  %158 = call zeroext i1 @zend_flf_parse_arg_str_slow(ptr noundef %155, ptr noundef %156, i32 noundef %157) #13
  store i1 %158, ptr %7, align 1
  br label %165

159:                                              ; preds = %151
  %160 = load ptr, ptr %8, align 8
  %161 = load ptr, ptr %9, align 8
  %162 = load i32, ptr %11, align 4
  %163 = call zeroext i1 @zend_parse_arg_str_slow(ptr noundef %160, ptr noundef %161, i32 noundef %162) #13
  store i1 %163, ptr %7, align 1
  br label %165

164:                                              ; preds = %149, %135
  store i1 true, ptr %7, align 1
  br label %165

165:                                              ; preds = %164, %159, %154
  %166 = load i1, ptr %7, align 1
  br i1 %166, label %168, label %167

167:                                              ; preds = %165
  store i1 false, ptr %24, align 1
  br label %187

168:                                              ; preds = %165
  %169 = load i8, ptr %28, align 1
  %170 = trunc i8 %169 to i1
  br i1 %170, label %171, label %178

171:                                              ; preds = %168
  %172 = load ptr, ptr %30, align 8
  %173 = icmp ne ptr %172, null
  %174 = xor i1 %173, true
  br i1 %174, label %175, label %178

175:                                              ; preds = %171
  %176 = load ptr, ptr %26, align 8
  store ptr null, ptr %176, align 8
  %177 = load ptr, ptr %27, align 8
  store i64 0, ptr %177, align 8
  br label %186

178:                                              ; preds = %171, %168
  %179 = load ptr, ptr %30, align 8
  %180 = getelementptr inbounds %struct._zend_string, ptr %179, i32 0, i32 3
  %181 = load ptr, ptr %26, align 8
  store ptr %180, ptr %181, align 8
  %182 = load ptr, ptr %30, align 8
  %183 = getelementptr inbounds %struct._zend_string, ptr %182, i32 0, i32 2
  %184 = load i64, ptr %183, align 8
  %185 = load ptr, ptr %27, align 8
  store i64 %184, ptr %185, align 8
  br label %186

186:                                              ; preds = %178, %175
  store i1 true, ptr %24, align 1
  br label %187

187:                                              ; preds = %186, %167
  %188 = load i1, ptr %24, align 1
  %189 = xor i1 %188, true
  %190 = xor i1 %189, true
  %191 = xor i1 %190, true
  %192 = zext i1 %191 to i32
  %193 = sext i32 %192 to i64
  %194 = icmp ne i64 %193, 0
  br i1 %194, label %195, label %196

195:                                              ; preds = %187
  store i32 4, ptr %43, align 4
  store i32 9, ptr %47, align 4
  br label %306

196:                                              ; preds = %187
  %197 = load i32, ptr %40, align 4
  %198 = add i32 %197, 1
  store i32 %198, ptr %40, align 4
  %199 = load i32, ptr %40, align 4
  %200 = load i32, ptr %37, align 4
  %201 = icmp ule i32 %199, %200
  br i1 %201, label %207, label %202

202:                                              ; preds = %196
  %203 = load i8, ptr %46, align 1
  %204 = trunc i8 %203 to i1
  %205 = zext i1 %204 to i32
  %206 = icmp eq i32 %205, 1
  br label %207

207:                                              ; preds = %202, %196
  %208 = phi i1 [ true, %196 ], [ %206, %202 ]
  call void @llvm.assume(i1 %208)
  %209 = load i32, ptr %40, align 4
  %210 = load i32, ptr %37, align 4
  %211 = icmp ugt i32 %209, %210
  br i1 %211, label %217, label %212

212:                                              ; preds = %207
  %213 = load i8, ptr %46, align 1
  %214 = trunc i8 %213 to i1
  %215 = zext i1 %214 to i32
  %216 = icmp eq i32 %215, 0
  br label %217

217:                                              ; preds = %212, %207
  %218 = phi i1 [ true, %207 ], [ %216, %212 ]
  call void @llvm.assume(i1 %218)
  %219 = load i8, ptr %46, align 1
  %220 = trunc i8 %219 to i1
  br i1 %220, label %221, label %232

221:                                              ; preds = %217
  %222 = load i32, ptr %40, align 4
  %223 = load i32, ptr %39, align 4
  %224 = icmp ugt i32 %222, %223
  %225 = xor i1 %224, true
  %226 = xor i1 %225, true
  %227 = zext i1 %226 to i32
  %228 = sext i32 %227 to i64
  %229 = icmp ne i64 %228, 0
  br i1 %229, label %230, label %231

230:                                              ; preds = %221
  br label %306

231:                                              ; preds = %221
  br label %232

232:                                              ; preds = %231, %217
  %233 = load ptr, ptr %41, align 8
  %234 = getelementptr inbounds %struct._zval_struct, ptr %233, i32 1
  store ptr %234, ptr %41, align 8
  %235 = load ptr, ptr %41, align 8
  store ptr %235, ptr %42, align 8
  %236 = load ptr, ptr %42, align 8
  %237 = load ptr, ptr @date_ce_timezone, align 8
  store ptr %236, ptr %16, align 8
  store ptr %33, ptr %17, align 8
  store ptr %237, ptr %18, align 8
  store i8 1, ptr %19, align 1
  %238 = load ptr, ptr %16, align 8
  store ptr %238, ptr %13, align 8
  %239 = load ptr, ptr %13, align 8
  %240 = getelementptr inbounds %struct._zval_struct, ptr %239, i32 0, i32 1
  %241 = load i8, ptr %240, align 8
  %242 = zext i8 %241 to i32
  %243 = icmp eq i32 %242, 8
  br i1 %243, label %244, label %265

244:                                              ; preds = %232
  %245 = load ptr, ptr %18, align 8
  %246 = icmp ne ptr %245, null
  br i1 %246, label %247, label %262

247:                                              ; preds = %244
  %248 = load ptr, ptr %16, align 8
  %249 = load ptr, ptr %248, align 8
  %250 = getelementptr inbounds %struct._zend_object, ptr %249, i32 0, i32 2
  %251 = load ptr, ptr %250, align 8
  %252 = load ptr, ptr %18, align 8
  store ptr %251, ptr %3, align 8
  store ptr %252, ptr %4, align 8
  %253 = load ptr, ptr %3, align 8
  %254 = load ptr, ptr %4, align 8
  %255 = icmp eq ptr %253, %254
  br i1 %255, label %260, label %256

256:                                              ; preds = %247
  %257 = load ptr, ptr %3, align 8
  %258 = load ptr, ptr %4, align 8
  %259 = call zeroext i1 @instanceof_function_slow(ptr noundef %257, ptr noundef %258) #13
  br label %260

260:                                              ; preds = %256, %247
  %261 = phi i1 [ true, %247 ], [ %259, %256 ]
  br i1 %261, label %262, label %265

262:                                              ; preds = %260, %244
  %263 = load ptr, ptr %16, align 8
  %264 = load ptr, ptr %17, align 8
  store ptr %263, ptr %264, align 8
  br label %278

265:                                              ; preds = %260, %232
  %266 = load i8, ptr %19, align 1
  %267 = trunc i8 %266 to i1
  br i1 %267, label %268, label %277

268:                                              ; preds = %265
  %269 = load ptr, ptr %16, align 8
  store ptr %269, ptr %14, align 8
  %270 = load ptr, ptr %14, align 8
  %271 = getelementptr inbounds %struct._zval_struct, ptr %270, i32 0, i32 1
  %272 = load i8, ptr %271, align 8
  %273 = zext i8 %272 to i32
  %274 = icmp eq i32 %273, 1
  br i1 %274, label %275, label %277

275:                                              ; preds = %268
  %276 = load ptr, ptr %17, align 8
  store ptr null, ptr %276, align 8
  br label %278

277:                                              ; preds = %268, %265
  store i1 false, ptr %15, align 1
  br label %279

278:                                              ; preds = %275, %262
  store i1 true, ptr %15, align 1
  br label %279

279:                                              ; preds = %278, %277
  %280 = load i1, ptr %15, align 1
  %281 = xor i1 %280, true
  %282 = xor i1 %281, true
  %283 = xor i1 %282, true
  %284 = zext i1 %283 to i32
  %285 = sext i32 %284 to i64
  %286 = icmp ne i64 %285, 0
  br i1 %286, label %287, label %297

287:                                              ; preds = %279
  %288 = load ptr, ptr @date_ce_timezone, align 8
  %289 = icmp ne ptr %288, null
  br i1 %289, label %290, label %296

290:                                              ; preds = %287
  %291 = load ptr, ptr @date_ce_timezone, align 8
  %292 = getelementptr inbounds %struct._zend_class_entry, ptr %291, i32 0, i32 1
  %293 = load ptr, ptr %292, align 8
  %294 = getelementptr inbounds %struct._zend_string, ptr %293, i32 0, i32 3
  %295 = getelementptr inbounds [1 x i8], ptr %294, i64 0, i64 0
  store ptr %295, ptr %44, align 8
  store i32 4, ptr %47, align 4
  br label %306

296:                                              ; preds = %287
  store i32 19, ptr %43, align 4
  store i32 9, ptr %47, align 4
  br label %306

297:                                              ; preds = %279
  %298 = load i32, ptr %40, align 4
  %299 = load i32, ptr %38, align 4
  %300 = icmp eq i32 %298, %299
  br i1 %300, label %304, label %301

301:                                              ; preds = %297
  %302 = load i32, ptr %38, align 4
  %303 = icmp eq i32 %302, -1
  br label %304

304:                                              ; preds = %301, %297
  %305 = phi i1 [ true, %297 ], [ %303, %301 ]
  call void @llvm.assume(i1 %305)
  br label %306

306:                                              ; preds = %304, %296, %290, %230, %195, %110, %71
  %307 = load i32, ptr %47, align 4
  %308 = icmp ne i32 %307, 0
  %309 = xor i1 %308, true
  %310 = xor i1 %309, true
  %311 = zext i1 %310 to i32
  %312 = sext i32 %311 to i64
  %313 = icmp ne i64 %312, 0
  br i1 %313, label %314, label %320

314:                                              ; preds = %306
  %315 = load i32, ptr %47, align 4
  %316 = load i32, ptr %40, align 4
  %317 = load ptr, ptr %44, align 8
  %318 = load i32, ptr %43, align 4
  %319 = load ptr, ptr %42, align 8
  call void @zend_wrong_parameter_error(i32 noundef %315, i32 noundef %316, ptr noundef %317, i32 noundef %318, ptr noundef %319)
  br label %331

320:                                              ; preds = %306
  br label %321

321:                                              ; preds = %320
  %322 = load ptr, ptr %31, align 8
  %323 = getelementptr inbounds %struct._zend_execute_data, ptr %322, i32 0, i32 4
  %324 = getelementptr inbounds %struct._zval_struct, ptr %323, i32 0, i32 0
  %325 = load ptr, ptr %324, align 8
  %326 = call ptr @php_date_obj_from_obj(ptr noundef %325)
  %327 = load ptr, ptr %34, align 8
  %328 = load i64, ptr %35, align 8
  %329 = load ptr, ptr %33, align 8
  %330 = call zeroext i1 @php_date_initialize(ptr noundef %326, ptr noundef %327, i64 noundef %328, ptr noundef null, ptr noundef %329, i32 noundef 1)
  br label %331

331:                                              ; preds = %321, %314
  ret void
}