; Function Attrs: nounwind uwtable
define hidden void @zim_DateTimeImmutable___construct(ptr noundef %0, ptr nocapture readnone %1) #0 {
  %3 = alloca ptr, align 8
  %4 = getelementptr inbounds i8, ptr %0, i64 32
  %5 = getelementptr inbounds i8, ptr %0, i64 44
  %6 = load i32, ptr %5, align 4
  %7 = icmp ugt i32 %6, 2
  br i1 %7, label %8, label %9

8:                                                ; preds = %2
  tail call void @zend_wrong_parameters_count_error(i32 noundef 0, i32 noundef 2) #25
  br label %45

9:                                                ; preds = %2
  %10 = icmp eq i32 %6, 0
  br i1 %10, label %.critedge.thread, label %11

11:                                               ; preds = %9
  %12 = getelementptr inbounds i8, ptr %0, i64 80
  %13 = getelementptr inbounds i8, ptr %0, i64 88
  %14 = load i8, ptr %13, align 8
  %15 = icmp eq i8 %14, 6
  br i1 %15, label %.thread, label %17

.thread:                                          ; preds = %11
  %16 = load ptr, ptr %12, align 8
  store ptr %16, ptr %3, align 8
  br label %19

17:                                               ; preds = %11
  %18 = call zeroext i1 @zend_parse_arg_str_slow(ptr noundef nonnull %12, ptr noundef nonnull %3, i32 noundef 1) #25
  br i1 %18, label %._crit_edge, label %45

._crit_edge:                                      ; preds = %17
  %.pre = load ptr, ptr %3, align 8
  br label %19

19:                                               ; preds = %._crit_edge, %.thread
  %20 = phi ptr [ %.pre, %._crit_edge ], [ %16, %.thread ]
  %21 = getelementptr inbounds i8, ptr %20, i64 16
  %22 = load i64, ptr %21, align 8
  %23 = getelementptr inbounds i8, ptr %20, i64 24
  %.not = icmp eq i32 %6, 2
  br i1 %.not, label %24, label %.critedge.thread

24:                                               ; preds = %19
  %25 = getelementptr inbounds i8, ptr %0, i64 96
  %26 = load ptr, ptr @date_ce_timezone, align 8
  %27 = getelementptr inbounds i8, ptr %0, i64 104
  %28 = load i8, ptr %27, align 8
  %29 = icmp eq i8 %28, 8
  br i1 %29, label %30, label %.critedge

30:                                               ; preds = %24
  %.not109 = icmp eq ptr %26, null
  br i1 %.not109, label %.critedge.thread, label %31

31:                                               ; preds = %30
  %32 = load ptr, ptr %25, align 8
  %33 = getelementptr inbounds i8, ptr %32, i64 16
  %34 = load ptr, ptr %33, align 8
  %35 = icmp eq ptr %34, %26
  br i1 %35, label %.critedge.thread, label %36

36:                                               ; preds = %31
  %37 = call zeroext i1 @instanceof_function_slow(ptr noundef %34, ptr noundef nonnull %26) #25
  br i1 %37, label %.critedge.thread, label %..critedge_crit_edge

..critedge_crit_edge:                             ; preds = %36
  %.pre136 = load i8, ptr %27, align 8
  br label %.critedge

.critedge:                                        ; preds = %..critedge_crit_edge, %24
  %38 = phi i8 [ %.pre136, %..critedge_crit_edge ], [ %28, %24 ]
  %.not135 = icmp eq i8 %38, 1
  br i1 %.not135, label %.critedge.thread, label %39

39:                                               ; preds = %.critedge
  %40 = load ptr, ptr @date_ce_timezone, align 8
  %.not110 = icmp eq ptr %40, null
  br i1 %.not110, label %45, label %41

41:                                               ; preds = %39
  %42 = getelementptr inbounds i8, ptr %40, i64 8
  %43 = load ptr, ptr %42, align 8
  %44 = getelementptr inbounds i8, ptr %43, i64 24
  br label %45

45:                                               ; preds = %8, %41, %39, %17
  %.093 = phi i32 [ 0, %8 ], [ 2, %41 ], [ 2, %39 ], [ 1, %17 ]
  %.092 = phi ptr [ null, %8 ], [ %25, %41 ], [ %25, %39 ], [ %12, %17 ]
  %.091 = phi i32 [ 0, %8 ], [ 0, %41 ], [ 19, %39 ], [ 4, %17 ]
  %.090 = phi ptr [ null, %8 ], [ %44, %41 ], [ null, %39 ], [ null, %17 ]
  %.0 = phi i32 [ 1, %8 ], [ 4, %41 ], [ 9, %39 ], [ 9, %17 ]
  call void @zend_wrong_parameter_error(i32 noundef %.0, i32 noundef %.093, ptr noundef %.090, i32 noundef %.091, ptr noundef %.092) #25
  br label %49

.critedge.thread:                                 ; preds = %31, %36, %30, %9, %19, %.critedge
  %.2103.ph = phi i64 [ %22, %.critedge ], [ %22, %19 ], [ 0, %9 ], [ %22, %30 ], [ %22, %36 ], [ %22, %31 ]
  %.2100.ph = phi ptr [ %23, %.critedge ], [ %23, %19 ], [ null, %9 ], [ %23, %30 ], [ %23, %36 ], [ %23, %31 ]
  %.2.ph = phi ptr [ null, %.critedge ], [ null, %19 ], [ null, %9 ], [ %25, %30 ], [ %25, %36 ], [ %25, %31 ]
  %46 = load ptr, ptr %4, align 8
  %47 = getelementptr inbounds i8, ptr %46, i64 -8
  %48 = call zeroext i1 @php_date_initialize(ptr noundef nonnull %47, ptr noundef %.2100.ph, i64 noundef %.2103.ph, ptr noundef null, ptr noundef %.2.ph, i32 noundef 1)
  br label %49

49:                                               ; preds = %.critedge.thread, %45
  ret void
}